; Function Attrs: nounwind uwtable
define void @av_fifo_freep2(ptr noundef %0) local_unnamed_addr #0 {
  %2 = load ptr, ptr %0, align 8, !tbaa !20
  %.not = icmp eq ptr %2, null
  br i1 %.not, label %4, label %3

3:                                                ; preds = %1
  tail call void @av_freep(ptr noundef nonnull %2) #10
  tail call void @av_freep(ptr noundef nonnull %0) #10
  br label %4

4:                                                ; preds = %3, %1
  ret void
}